target datalayout = "e-m:e-p270:32:32-p271:32:32-p272:64:64-i64:64-i128:128-f80:128-n8:16:32:64-S128"
target triple = "x86_64-pc-linux-gnu"

%struct._object = type { %union.anon, ptr }
%union.anon = type { i64 }
%struct._typeobject = type { %struct.PyVarObject, ptr, i64, i64, ptr, i64, ptr, ptr, ptr, ptr, ptr, ptr, ptr, ptr, ptr, ptr, ptr, ptr, ptr, i64, ptr, ptr, ptr, ptr, i64, ptr, ptr, ptr, ptr, ptr, ptr, ptr, ptr, ptr, i64, ptr, ptr, ptr, ptr, ptr, ptr, ptr, ptr, ptr, ptr, ptr, i32, ptr, ptr, i8, i16 }
%struct.PyVarObject = type { %struct._object, i64 }
%struct.PyType_Slot = type { i32, ptr }

@PyUnicode_Type = external global %struct._typeobject, align 8
@.str.10 = private unnamed_addr constant [8 x i8] c"Example\00", align 1
@.str.11 = private unnamed_addr constant [22 x i8] c"_testimportexec.error\00", align 1
@.str.12 = private unnamed_addr constant [6 x i8] c"error\00", align 1
@.str.13 = private unnamed_addr constant [4 x i8] c"Str\00", align 1
@.str.14 = private unnamed_addr constant [10 x i8] c"int_const\00", align 1
@.str.15 = private unnamed_addr constant [10 x i8] c"str_const\00", align 1
@.str.16 = private unnamed_addr constant [20 x i8] c"something different\00", align 1
@Str_Type_slots = internal global [2 x { i32, [4 x i8], ptr }] [{ i32, [4 x i8], ptr } { i32 48, [4 x i8] zeroinitializer, ptr null }, { i32, [4 x i8], ptr } zeroinitializer], align 16
@Example_Type_spec = internal global { ptr, i32, i32, i32, [4 x i8], ptr } { ptr @.str.18, i32 24, i32 0, i32 16384, [4 x i8] zeroinitializer, ptr @Example_Type_slots }, align 8
@Str_Type_spec = internal global { ptr, i32, i32, i32, [4 x i8], ptr } { ptr @.str.27, i32 0, i32 0, i32 1024, [4 x i8] zeroinitializer, ptr @Str_Type_slots }, align 8

; Function Attrs: nounwind uwtable
define internal i32 @execfunc(ptr noundef %0) #0 {
  %2 = alloca i32, align 4
  %3 = alloca ptr, align 8
  %4 = alloca ptr, align 8
  %5 = alloca i32, align 4
  store ptr %0, ptr %3, align 8, !tbaa !3
  call void @llvm.lifetime.start.p0(i64 8, ptr %4) #5
  store ptr null, ptr %4, align 8, !tbaa !3
  store ptr @PyUnicode_Type, ptr getelementptr inbounds nuw (%struct.PyType_Slot, ptr @Str_Type_slots, i32 0, i32 1), align 8, !tbaa !15
  %6 = call ptr @PyType_FromSpec(ptr noundef @Example_Type_spec)
  store ptr %6, ptr %4, align 8, !tbaa !3
  %7 = load ptr, ptr %3, align 8, !tbaa !3
  %8 = load ptr, ptr %4, align 8, !tbaa !3
  %9 = call i32 @PyModule_Add(ptr noundef %7, ptr noundef @.str.10, ptr noundef %8)
  %10 = icmp ne i32 %9, 0
  br i1 %10, label %11, label %12

11:                                               ; preds = %1
  br label %37

12:                                               ; preds = %1
  %13 = call ptr @PyErr_NewException(ptr noundef @.str.11, ptr noundef null, ptr noundef null)
  store ptr %13, ptr %4, align 8, !tbaa !3
  %14 = load ptr, ptr %3, align 8, !tbaa !3
  %15 = load ptr, ptr %4, align 8, !tbaa !3
  %16 = call i32 @PyModule_Add(ptr noundef %14, ptr noundef @.str.12, ptr noundef %15)
  %17 = icmp ne i32 %16, 0
  br i1 %17, label %18, label %19

18:                                               ; preds = %12
  br label %37

19:                                               ; preds = %12
  %20 = call ptr @PyType_FromSpec(ptr noundef @Str_Type_spec)
  store ptr %20, ptr %4, align 8, !tbaa !3
  %21 = load ptr, ptr %3, align 8, !tbaa !3
  %22 = load ptr, ptr %4, align 8, !tbaa !3
  %23 = call i32 @PyModule_Add(ptr noundef %21, ptr noundef @.str.13, ptr noundef %22)
  %24 = icmp ne i32 %23, 0
  br i1 %24, label %25, label %26

25:                                               ; preds = %19
  br label %37

26:                                               ; preds = %19
  %27 = load ptr, ptr %3, align 8, !tbaa !3
  %28 = call i32 @PyModule_AddIntConstant(ptr noundef %27, ptr noundef @.str.14, i64 noundef 1969)
  %29 = icmp ne i32 %28, 0
  br i1 %29, label %30, label %31

30:                                               ; preds = %26
  br label %37

31:                                               ; preds = %26
  %32 = load ptr, ptr %3, align 8, !tbaa !3
  %33 = call i32 @PyModule_AddStringConstant(ptr noundef %32, ptr noundef @.str.15, ptr noundef @.str.16)
  %34 = icmp ne i32 %33, 0
  br i1 %34, label %35, label %36

35:                                               ; preds = %31
  br label %37

36:                                               ; preds = %31
  store i32 0, ptr %2, align 4
  store i32 1, ptr %5, align 4
  br label %38

37:                                               ; preds = %35, %30, %25, %18, %11
  store i32 -1, ptr %2, align 4
  store i32 1, ptr %5, align 4
  br label %38

38:                                               ; preds = %37, %36
  call void @llvm.lifetime.end.p0(i64 8, ptr %4) #5
  %39 = load i32, ptr %2, align 4
  ret i32 %39
}