; Function Attrs: nounwind uwtable
define internal range(i32 -1, 1) i32 @execfunc(ptr noundef %0) #0 {
  store ptr @PyUnicode_Type, ptr getelementptr inbounds nuw (i8, ptr @Str_Type_slots, i64 8), align 8, !tbaa !13
  %2 = tail call ptr @PyType_FromSpec(ptr noundef nonnull @Example_Type_spec) #4
  %3 = tail call i32 @PyModule_Add(ptr noundef %0, ptr noundef nonnull @.str.10, ptr noundef %2) #4
  %.not = icmp eq i32 %3, 0
  br i1 %.not, label %4, label %14

4:                                                ; preds = %1
  %5 = tail call ptr @PyErr_NewException(ptr noundef nonnull @.str.11, ptr noundef null, ptr noundef null) #4
  %6 = tail call i32 @PyModule_Add(ptr noundef %0, ptr noundef nonnull @.str.12, ptr noundef %5) #4
  %.not8 = icmp eq i32 %6, 0
  br i1 %.not8, label %7, label %14

7:                                                ; preds = %4
  %8 = tail call ptr @PyType_FromSpec(ptr noundef nonnull @Str_Type_spec) #4
  %9 = tail call i32 @PyModule_Add(ptr noundef %0, ptr noundef nonnull @.str.13, ptr noundef %8) #4
  %.not9 = icmp eq i32 %9, 0
  br i1 %.not9, label %10, label %14

10:                                               ; preds = %7
  %11 = tail call i32 @PyModule_AddIntConstant(ptr noundef %0, ptr noundef nonnull @.str.14, i64 noundef 1969) #4
  %.not10 = icmp eq i32 %11, 0
  br i1 %.not10, label %12, label %14

12:                                               ; preds = %10
  %13 = tail call i32 @PyModule_AddStringConstant(ptr noundef %0, ptr noundef nonnull @.str.15, ptr noundef nonnull @.str.16) #4
  %.not11 = icmp eq i32 %13, 0
  br i1 %.not11, label %15, label %14

14:                                               ; preds = %12, %10, %7, %4, %1
  br label %15

15:                                               ; preds = %12, %14
  %.0 = phi i32 [ -1, %14 ], [ 0, %12 ]
  ret i32 %.0
}